	.file	"Print.cpp"
__SP_H__ = 0x3e
__SP_L__ = 0x3d
__SREG__ = 0x3f
__tmp_reg__ = 0
__zero_reg__ = 1
	.text
.Ltext0:
	.cfi_sections	.debug_frame
	.section	.text._ZN5Print17availableForWriteEv,"axG",@progbits,_ZN5Print17availableForWriteEv,comdat
	.weak	_ZN5Print17availableForWriteEv
	.type	_ZN5Print17availableForWriteEv, @function
_ZN5Print17availableForWriteEv:
.LFB15:
	.file 1 ".././Print.h"
	.loc 1 62 0
	.cfi_startproc
.LVL0:
/* prologue: function */
/* frame size = 0 */
/* stack size = 0 */
.L__stack_usage = 0
	.loc 1 62 0
	ldi r24,0
	ldi r25,0
.LVL1:
	ret
	.cfi_endproc
.LFE15:
	.size	_ZN5Print17availableForWriteEv, .-_ZN5Print17availableForWriteEv
	.section	.text._ZN5Print5flushEv,"axG",@progbits,_ZN5Print5flushEv,comdat
	.weak	_ZN5Print5flushEv
	.type	_ZN5Print5flushEv, @function
_ZN5Print5flushEv:
.LFB16:
	.loc 1 85 0
	.cfi_startproc
.LVL2:
/* prologue: function */
/* frame size = 0 */
/* stack size = 0 */
.L__stack_usage = 0
	ret
	.cfi_endproc
.LFE16:
	.size	_ZN5Print5flushEv, .-_ZN5Print5flushEv
	.section	.text._ZN5Print5writeEPKhj,"ax",@progbits
.global	_ZN5Print5writeEPKhj
	.type	_ZN5Print5writeEPKhj, @function
_ZN5Print5writeEPKhj:
.LFB42:
	.file 2 ".././Print.cpp"
	.loc 2 34 0
	.cfi_startproc
.LVL3:
	.loc 2 34 0
	push r12
.LCFI0:
	.cfi_def_cfa_offset 3
	.cfi_offset 12, -2
	push r13
.LCFI1:
	.cfi_def_cfa_offset 4
	.cfi_offset 13, -3
	push r14
.LCFI2:
	.cfi_def_cfa_offset 5
	.cfi_offset 14, -4
	push r15
.LCFI3:
	.cfi_def_cfa_offset 6
	.cfi_offset 15, -5
	push r16
.LCFI4:
	.cfi_def_cfa_offset 7
	.cfi_offset 16, -6
	push r17
.LCFI5:
	.cfi_def_cfa_offset 8
	.cfi_offset 17, -7
	push r28
.LCFI6:
	.cfi_def_cfa_offset 9
	.cfi_offset 28, -8
	push r29
.LCFI7:
	.cfi_def_cfa_offset 10
	.cfi_offset 29, -9
/* prologue: function */
/* frame size = 0 */
/* stack size = 8 */
.L__stack_usage = 8
	movw r16,r24
	movw r26,r22
.LVL4:
	.loc 2 35 0
	ldi r28,0
	ldi r29,0
.LVL5:
.L5:
	.loc 2 36 0
	movw r14,r20
	ldi r24,1
	sub r14,r24
	sbc r15,__zero_reg__
.LVL6:
	or r20,r21
	breq .L4
	.loc 2 37 0
	movw r30,r16
	ld r24,Z
	ldd r25,Z+1
	movw r30,r24
	ld r18,Z
	ldd r19,Z+1
	movw r12,r26
	ldi r31,-1
	sub r12,r31
	sbc r13,r31
.LVL7:
	ld r22,X
	movw r24,r16
	movw r30,r18
	icall
.LVL8:
	or r24,r25
	breq .L4
	.loc 2 37 0 is_stmt 0 discriminator 1
	adiw r28,1
.LVL9:
	.loc 2 36 0 is_stmt 1 discriminator 1
	movw r20,r14
	.loc 2 37 0 discriminator 1
	movw r26,r12
	.loc 2 36 0 discriminator 1
	rjmp .L5
.LVL10:
.L4:
	.loc 2 41 0
	movw r24,r28
/* epilogue start */
	pop r29
	pop r28
.LVL11:
	pop r17
	pop r16
.LVL12:
	pop r15
	pop r14
.LVL13:
	pop r13
	pop r12
	ret
	.cfi_endproc
.LFE42:
	.size	_ZN5Print5writeEPKhj, .-_ZN5Print5writeEPKhj
	.section	.text._ZN5Print5printEPKc,"ax",@progbits
.global	_ZN5Print5printEPKc
	.type	_ZN5Print5printEPKc, @function
_ZN5Print5printEPKc:
.LFB43:
	.loc 2 48 0
	.cfi_startproc
.LVL14:
/* prologue: function */
/* frame size = 0 */
/* stack size = 0 */
.L__stack_usage = 0
.LBB4:
.LBB5:
	.loc 1 52 0
	cp r22,__zero_reg__
	cpc r23,__zero_reg__
	breq .L8
	.loc 1 53 0
	movw r30,r22
	0:
	ld __tmp_reg__,Z+
	tst __tmp_reg__
	brne 0b
	sbiw r30,1
	movw r20,r30
	sub r20,r22
	sbc r21,r23
	movw r26,r24
	ld r30,X+
	ld r31,X
	ldd __tmp_reg__,Z+2
	ldd r31,Z+3
	mov r30,__tmp_reg__
	icall
.LVL15:
	ret
.LVL16:
.L8:
	.loc 1 52 0
	ldi r24,0
	ldi r25,0
.LVL17:
.LBE5:
.LBE4:
	.loc 2 50 0
	ret
	.cfi_endproc
.LFE43:
	.size	_ZN5Print5printEPKc, .-_ZN5Print5printEPKc
	.section	.text._ZN5Print5printEc,"ax",@progbits
.global	_ZN5Print5printEc
	.type	_ZN5Print5printEc, @function
_ZN5Print5printEc:
.LFB44:
	.loc 2 53 0
	.cfi_startproc
.LVL18:
/* prologue: function */
/* frame size = 0 */
/* stack size = 0 */
.L__stack_usage = 0
	.loc 2 54 0
	movw r26,r24
	ld r30,X+
	ld r31,X
	ld __tmp_reg__,Z+
	ld r31,Z
	mov r30,__tmp_reg__
	icall
.LVL19:
	.loc 2 55 0
	ret
	.cfi_endproc
.LFE44:
	.size	_ZN5Print5printEc, .-_ZN5Print5printEc
	.section	.rodata.str1.1,"aMS",@progbits,1
.LC0:
	.string	"\r\n"
	.section	.text._ZN5Print7printlnEv,"ax",@progbits
.global	_ZN5Print7printlnEv
	.type	_ZN5Print7printlnEv, @function
_ZN5Print7printlnEv:
.LFB51:
	.loc 2 101 0
	.cfi_startproc
.LVL20:
/* prologue: function */
/* frame size = 0 */
/* stack size = 0 */
.L__stack_usage = 0
.LBB8:
.LBB9:
	.loc 1 53 0
	movw r26,r24
	ld r30,X+
	ld r31,X
	ldd __tmp_reg__,Z+2
	ldd r31,Z+3
	mov r30,__tmp_reg__
	ldi r20,lo8(2)
	ldi r21,0
	ldi r22,lo8(.LC0)
	ldi r23,hi8(.LC0)
	icall
.LVL21:
.LBE9:
.LBE8:
	.loc 2 103 0
	ret
	.cfi_endproc
.LFE51:
	.size	_ZN5Print7printlnEv, .-_ZN5Print7printlnEv
	.section	.text._ZN5Print7printlnEPKc,"ax",@progbits
.global	_ZN5Print7printlnEPKc
	.type	_ZN5Print7printlnEPKc, @function
_ZN5Print7printlnEPKc:
.LFB52:
	.loc 2 106 0
	.cfi_startproc
.LVL22:
	push r16
.LCFI8:
	.cfi_def_cfa_offset 3
	.cfi_offset 16, -2
	push r17
.LCFI9:
	.cfi_def_cfa_offset 4
	.cfi_offset 17, -3
	push r28
.LCFI10:
	.cfi_def_cfa_offset 5
	.cfi_offset 28, -4
	push r29
.LCFI11:
	.cfi_def_cfa_offset 6
	.cfi_offset 29, -5
/* prologue: function */
/* frame size = 0 */
/* stack size = 4 */
.L__stack_usage = 4
	movw r28,r24
	.loc 2 107 0
	call _ZN5Print5printEPKc
.LVL23:
	movw r16,r24
.LVL24:
	.loc 2 108 0
	movw r24,r28
	call _ZN5Print7printlnEv
.LVL25:
	.loc 2 110 0
	add r24,r16
	adc r25,r17
.LVL26:
/* epilogue start */
	pop r29
	pop r28
.LVL27:
	pop r17
	pop r16
	ret
	.cfi_endproc
.LFE52:
	.size	_ZN5Print7printlnEPKc, .-_ZN5Print7printlnEPKc
	.section	.text._ZN5Print7printlnEc,"ax",@progbits
.global	_ZN5Print7printlnEc
	.type	_ZN5Print7printlnEc, @function
_ZN5Print7printlnEc:
.LFB53:
	.loc 2 113 0
	.cfi_startproc
.LVL28:
	push r16
.LCFI12:
	.cfi_def_cfa_offset 3
	.cfi_offset 16, -2
	push r17
.LCFI13:
	.cfi_def_cfa_offset 4
	.cfi_offset 17, -3
	push r28
.LCFI14:
	.cfi_def_cfa_offset 5
	.cfi_offset 28, -4
	push r29
.LCFI15:
	.cfi_def_cfa_offset 6
	.cfi_offset 29, -5
/* prologue: function */
/* frame size = 0 */
/* stack size = 4 */
.L__stack_usage = 4
	movw r28,r24
	.loc 2 114 0
	call _ZN5Print5printEc
.LVL29:
	movw r16,r24
.LVL30:
	.loc 2 115 0
	movw r24,r28
	call _ZN5Print7printlnEv
.LVL31:
	.loc 2 117 0
	add r24,r16
	adc r25,r17
.LVL32:
/* epilogue start */
	pop r29
	pop r28
.LVL33:
	pop r17
	pop r16
	ret
	.cfi_endproc
.LFE53:
	.size	_ZN5Print7printlnEc, .-_ZN5Print7printlnEc
	.section	.text._ZN5Print11printNumberEmh,"ax",@progbits
.global	_ZN5Print11printNumberEmh
	.type	_ZN5Print11printNumberEmh, @function
_ZN5Print11printNumberEmh:
.LFB60:
	.loc 2 164 0
	.cfi_startproc
.LVL34:
	push r8
.LCFI16:
	.cfi_def_cfa_offset 3
	.cfi_offset 8, -2
	push r9
.LCFI17:
	.cfi_def_cfa_offset 4
	.cfi_offset 9, -3
	push r10
.LCFI18:
	.cfi_def_cfa_offset 5
	.cfi_offset 10, -4
	push r11
.LCFI19:
	.cfi_def_cfa_offset 6
	.cfi_offset 11, -5
	push r13
.LCFI20:
	.cfi_def_cfa_offset 7
	.cfi_offset 13, -6
	push r14
.LCFI21:
	.cfi_def_cfa_offset 8
	.cfi_offset 14, -7
	push r15
.LCFI22:
	.cfi_def_cfa_offset 9
	.cfi_offset 15, -8
	push r16
.LCFI23:
	.cfi_def_cfa_offset 10
	.cfi_offset 16, -9
	push r17
.LCFI24:
	.cfi_def_cfa_offset 11
	.cfi_offset 17, -10
	push r28
.LCFI25:
	.cfi_def_cfa_offset 12
	.cfi_offset 28, -11
	push r29
.LCFI26:
	.cfi_def_cfa_offset 13
	.cfi_offset 29, -12
	in r28,__SP_L__
	in r29,__SP_H__
.LCFI27:
	.cfi_def_cfa_register 28
	sbiw r28,33
.LCFI28:
	.cfi_def_cfa_offset 46
	in __tmp_reg__,__SREG__
	cli
	out __SP_H__,r29
	out __SREG__,__tmp_reg__
	out __SP_L__,r28
/* prologue: function */
/* frame size = 33 */
/* stack size = 44 */
.L__stack_usage = 44
	movw r14,r24
	movw r24,r22
	movw r22,r20
	mov r13,r18
.LVL35:
	.loc 2 168 0
	std Y+33,__zero_reg__
	.loc 2 171 0
	ldi r18,lo8(1)
.LVL36:
	cp r18,r13
	brlo .L14
	mov __tmp_reg__,r31
	ldi r31,lo8(10)
	mov r13,r31
	mov r31,__tmp_reg__
.LVL37:
.L14:
	movw r16,r28
	subi r16,-33
	sbci r17,-1
.LVL38:
.L17:
.LBB13:
	.loc 2 174 0
	mov r8,r13
	mov r9,__zero_reg__
	mov r10,__zero_reg__
	mov r11,__zero_reg__
	movw r20,r10
	movw r18,r8
	call __udivmodsi4
.LVL39:
	mov r30,r22
.LVL40:
	.loc 2 175 0
	mov r22,r18
.LVL41:
	mov r23,r19
	mov r24,r20
	mov r25,r21
.LVL42:
	.loc 2 177 0
	subi r16,1
	sbc r17,__zero_reg__
.LVL43:
	cpi r30,lo8(10)
	brsh .L15
	.loc 2 177 0 is_stmt 0 discriminator 1
	subi r30,lo8(-(48))
.LVL44:
	rjmp .L16
.LVL45:
.L15:
	.loc 2 177 0 discriminator 2
	subi r30,lo8(-(55))
.LVL46:
.L16:
	.loc 2 177 0 discriminator 4
	movw r26,r16
	st X,r30
.LBE13:
	.loc 2 173 0 is_stmt 1 discriminator 4
	cp r22,__zero_reg__
	cpc r23,__zero_reg__
	cpc r24,__zero_reg__
	cpc r25,__zero_reg__
	brne .L17
.LVL47:
.LBB14:
.LBB15:
	.loc 1 52 0
	cp r16,__zero_reg__
	cpc r17,__zero_reg__
	breq .L20
	.loc 1 53 0
	movw r30,r16
	0:
	ld __tmp_reg__,Z+
	tst __tmp_reg__
	brne 0b
	sbiw r30,1
	movw r20,r30
.LVL48:
	sub r20,r16
	sbc r21,r17
	movw r26,r14
	ld r30,X+
	ld r31,X
	ldd __tmp_reg__,Z+2
	ldd r31,Z+3
	mov r30,__tmp_reg__
	movw r22,r16
	movw r24,r14
.LVL49:
	icall
.LVL50:
	rjmp .L18
.LVL51:
.L20:
	.loc 1 52 0
	ldi r24,0
	ldi r25,0
.LVL52:
.L18:
/* epilogue start */
.LBE15:
.LBE14:
	.loc 2 181 0
	adiw r28,33
	in __tmp_reg__,__SREG__
	cli
	out __SP_H__,r29
	out __SREG__,__tmp_reg__
	out __SP_L__,r28
	pop r29
	pop r28
	pop r17
	pop r16
.LVL53:
	pop r15
	pop r14
.LVL54:
	pop r13
.LVL55:
	pop r11
	pop r10
	pop r9
	pop r8
.LVL56:
	ret
	.cfi_endproc
.LFE60:
	.size	_ZN5Print11printNumberEmh, .-_ZN5Print11printNumberEmh
	.section	.text._ZN5Print5printEli,"ax",@progbits
.global	_ZN5Print5printEli
	.type	_ZN5Print5printEli, @function
_ZN5Print5printEli:
.LFB48:
	.loc 2 73 0
	.cfi_startproc
.LVL57:
	push r12
.LCFI29:
	.cfi_def_cfa_offset 3
	.cfi_offset 12, -2
	push r13
.LCFI30:
	.cfi_def_cfa_offset 4
	.cfi_offset 13, -3
	push r14
.LCFI31:
	.cfi_def_cfa_offset 5
	.cfi_offset 14, -4
	push r15
.LCFI32:
	.cfi_def_cfa_offset 6
	.cfi_offset 15, -5
	push r16
.LCFI33:
	.cfi_def_cfa_offset 7
	.cfi_offset 16, -6
	push r17
.LCFI34:
	.cfi_def_cfa_offset 8
	.cfi_offset 17, -7
	push r28
.LCFI35:
	.cfi_def_cfa_offset 9
	.cfi_offset 28, -8
	push r29
.LCFI36:
	.cfi_def_cfa_offset 10
	.cfi_offset 29, -9
/* prologue: function */
/* frame size = 0 */
/* stack size = 8 */
.L__stack_usage = 8
	movw r28,r24
	movw r12,r20
	movw r14,r22
.LBB16:
	.loc 2 74 0
	cp r18,__zero_reg__
	cpc r19,__zero_reg__
	brne .L22
	.loc 2 75 0
	ld r30,Y
	ldd r31,Y+1
	ld __tmp_reg__,Z+
	ld r31,Z
	mov r30,__tmp_reg__
	mov r22,r20
	icall
.LVL58:
	rjmp .L23
.LVL59:
.L22:
.LBB17:
	.loc 2 76 0
	cpi r18,10
	cpc r19,__zero_reg__
	brne .L24
.LBB18:
.LBB19:
	.loc 2 77 0
	tst r23
	brge .L25
.LBB20:
	.loc 2 78 0
	ldi r22,lo8(45)
	call _ZN5Print5printEc
.LVL60:
	movw r16,r24
.LVL61:
	.loc 2 79 0
	clr r20
	clr r21
	movw r22,r20
	sub r20,r12
	sbc r21,r13
	sbc r22,r14
	sbc r23,r15
.LVL62:
	.loc 2 80 0
	ldi r18,lo8(10)
	movw r24,r28
	call _ZN5Print11printNumberEmh
.LVL63:
	add r24,r16
	adc r25,r17
	rjmp .L23
.LVL64:
.L25:
.LBE20:
.LBE19:
	.loc 2 82 0
	ldi r18,lo8(10)
.LVL65:
	call _ZN5Print11printNumberEmh
.LVL66:
	rjmp .L23
.LVL67:
.L24:
.LBE18:
	.loc 2 84 0
	call _ZN5Print11printNumberEmh
.LVL68:
.L23:
/* epilogue start */
.LBE17:
.LBE16:
	.loc 2 86 0
	pop r29
	pop r28
.LVL69:
	pop r17
	pop r16
	pop r15
	pop r14
	pop r13
	pop r12
	ret
	.cfi_endproc
.LFE48:
	.size	_ZN5Print5printEli, .-_ZN5Print5printEli
	.section	.text._ZN5Print5printEii,"ax",@progbits
.global	_ZN5Print5printEii
	.type	_ZN5Print5printEii, @function
_ZN5Print5printEii:
.LFB46:
	.loc 2 63 0
	.cfi_startproc
.LVL70:
/* prologue: function */
/* frame size = 0 */
/* stack size = 0 */
.L__stack_usage = 0
	movw r18,r20
	.loc 2 64 0
	movw r20,r22
	lsl r23
	sbc r22,r22
	sbc r23,r23
.LVL71:
	call _ZN5Print5printEli
.LVL72:
	.loc 2 65 0
	ret
	.cfi_endproc
.LFE46:
	.size	_ZN5Print5printEii, .-_ZN5Print5printEii
	.section	.text._ZN5Print7printlnEii,"ax",@progbits
.global	_ZN5Print7printlnEii
	.type	_ZN5Print7printlnEii, @function
_ZN5Print7printlnEii:
.LFB55:
	.loc 2 127 0
	.cfi_startproc
.LVL73:
	push r16
.LCFI37:
	.cfi_def_cfa_offset 3
	.cfi_offset 16, -2
	push r17
.LCFI38:
	.cfi_def_cfa_offset 4
	.cfi_offset 17, -3
	push r28
.LCFI39:
	.cfi_def_cfa_offset 5
	.cfi_offset 28, -4
	push r29
.LCFI40:
	.cfi_def_cfa_offset 6
	.cfi_offset 29, -5
/* prologue: function */
/* frame size = 0 */
/* stack size = 4 */
.L__stack_usage = 4
	movw r28,r24
	.loc 2 128 0
	call _ZN5Print5printEii
.LVL74:
	movw r16,r24
.LVL75:
	.loc 2 129 0
	movw r24,r28
	call _ZN5Print7printlnEv
.LVL76:
	.loc 2 131 0
	add r24,r16
	adc r25,r17
.LVL77:
/* epilogue start */
	pop r29
	pop r28
.LVL78:
	pop r17
	pop r16
	ret
	.cfi_endproc
.LFE55:
	.size	_ZN5Print7printlnEii, .-_ZN5Print7printlnEii
	.section	.text._ZN5Print7printlnEli,"ax",@progbits
.global	_ZN5Print7printlnEli
	.type	_ZN5Print7printlnEli, @function
_ZN5Print7printlnEli:
.LFB57:
	.loc 2 141 0
	.cfi_startproc
.LVL79:
	push r16
.LCFI41:
	.cfi_def_cfa_offset 3
	.cfi_offset 16, -2
	push r17
.LCFI42:
	.cfi_def_cfa_offset 4
	.cfi_offset 17, -3
	push r28
.LCFI43:
	.cfi_def_cfa_offset 5
	.cfi_offset 28, -4
	push r29
.LCFI44:
	.cfi_def_cfa_offset 6
	.cfi_offset 29, -5
/* prologue: function */
/* frame size = 0 */
/* stack size = 4 */
.L__stack_usage = 4
	movw r28,r24
	.loc 2 142 0
	call _ZN5Print5printEli
.LVL80:
	movw r16,r24
.LVL81:
	.loc 2 143 0
	movw r24,r28
	call _ZN5Print7printlnEv
.LVL82:
	.loc 2 145 0
	add r24,r16
	adc r25,r17
.LVL83:
/* epilogue start */
	pop r29
	pop r28
.LVL84:
	pop r17
	pop r16
	ret
	.cfi_endproc
.LFE57:
	.size	_ZN5Print7printlnEli, .-_ZN5Print7printlnEli
	.section	.text._ZN5Print5printEmi,"ax",@progbits
.global	_ZN5Print5printEmi
	.type	_ZN5Print5printEmi, @function
_ZN5Print5printEmi:
.LFB49:
	.loc 2 89 0
	.cfi_startproc
.LVL85:
/* prologue: function */
/* frame size = 0 */
/* stack size = 0 */
.L__stack_usage = 0
	.loc 2 90 0
	cp r18,__zero_reg__
	cpc r19,__zero_reg__
	brne .L30
	.loc 2 90 0 is_stmt 0 discriminator 1
	movw r26,r24
	ld r30,X+
	ld r31,X
	ld __tmp_reg__,Z+
	ld r31,Z
	mov r30,__tmp_reg__
	mov r22,r20
	icall
.LVL86:
	ret
.LVL87:
.L30:
	.loc 2 91 0 is_stmt 1
	call _ZN5Print11printNumberEmh
.LVL88:
	.loc 2 92 0
	ret
	.cfi_endproc
.LFE49:
	.size	_ZN5Print5printEmi, .-_ZN5Print5printEmi
	.section	.text._ZN5Print5printEhi,"ax",@progbits
.global	_ZN5Print5printEhi
	.type	_ZN5Print5printEhi, @function
_ZN5Print5printEhi:
.LFB45:
	.loc 2 58 0
	.cfi_startproc
.LVL89:
/* prologue: function */
/* frame size = 0 */
/* stack size = 0 */
.L__stack_usage = 0
	movw r18,r20
	.loc 2 59 0
	mov r20,r22
.LVL90:
	ldi r21,0
	ldi r22,0
	ldi r23,0
.LVL91:
	call _ZN5Print5printEmi
.LVL92:
	.loc 2 60 0
	ret
	.cfi_endproc
.LFE45:
	.size	_ZN5Print5printEhi, .-_ZN5Print5printEhi
	.section	.text._ZN5Print7printlnEhi,"ax",@progbits
.global	_ZN5Print7printlnEhi
	.type	_ZN5Print7printlnEhi, @function
_ZN5Print7printlnEhi:
.LFB54:
	.loc 2 120 0
	.cfi_startproc
.LVL93:
	push r16
.LCFI45:
	.cfi_def_cfa_offset 3
	.cfi_offset 16, -2
	push r17
.LCFI46:
	.cfi_def_cfa_offset 4
	.cfi_offset 17, -3
	push r28
.LCFI47:
	.cfi_def_cfa_offset 5
	.cfi_offset 28, -4
	push r29
.LCFI48:
	.cfi_def_cfa_offset 6
	.cfi_offset 29, -5
/* prologue: function */
/* frame size = 0 */
/* stack size = 4 */
.L__stack_usage = 4
	movw r28,r24
	.loc 2 121 0
	call _ZN5Print5printEhi
.LVL94:
	movw r16,r24
.LVL95:
	.loc 2 122 0
	movw r24,r28
	call _ZN5Print7printlnEv
.LVL96:
	.loc 2 124 0
	add r24,r16
	adc r25,r17
.LVL97:
/* epilogue start */
	pop r29
	pop r28
.LVL98:
	pop r17
	pop r16
	ret
	.cfi_endproc
.LFE54:
	.size	_ZN5Print7printlnEhi, .-_ZN5Print7printlnEhi
	.section	.text._ZN5Print5printEji,"ax",@progbits
.global	_ZN5Print5printEji
	.type	_ZN5Print5printEji, @function
_ZN5Print5printEji:
.LFB47:
	.loc 2 68 0
	.cfi_startproc
.LVL99:
/* prologue: function */
/* frame size = 0 */
/* stack size = 0 */
.L__stack_usage = 0
	movw r18,r20
	.loc 2 69 0
	movw r20,r22
.LVL100:
	ldi r22,0
	ldi r23,0
.LVL101:
	call _ZN5Print5printEmi
.LVL102:
	.loc 2 70 0
	ret
	.cfi_endproc
.LFE47:
	.size	_ZN5Print5printEji, .-_ZN5Print5printEji
	.section	.text._ZN5Print7printlnEji,"ax",@progbits
.global	_ZN5Print7printlnEji
	.type	_ZN5Print7printlnEji, @function
_ZN5Print7printlnEji:
.LFB56:
	.loc 2 134 0
	.cfi_startproc
.LVL103:
	push r16
.LCFI49:
	.cfi_def_cfa_offset 3
	.cfi_offset 16, -2
	push r17
.LCFI50:
	.cfi_def_cfa_offset 4
	.cfi_offset 17, -3
	push r28
.LCFI51:
	.cfi_def_cfa_offset 5
	.cfi_offset 28, -4
	push r29
.LCFI52:
	.cfi_def_cfa_offset 6
	.cfi_offset 29, -5
/* prologue: function */
/* frame size = 0 */
/* stack size = 4 */
.L__stack_usage = 4
	movw r28,r24
	.loc 2 135 0
	call _ZN5Print5printEji
.LVL104:
	movw r16,r24
.LVL105:
	.loc 2 136 0
	movw r24,r28
	call _ZN5Print7printlnEv
.LVL106:
	.loc 2 138 0
	add r24,r16
	adc r25,r17
.LVL107:
/* epilogue start */
	pop r29
	pop r28
.LVL108:
	pop r17
	pop r16
	ret
	.cfi_endproc
.LFE56:
	.size	_ZN5Print7printlnEji, .-_ZN5Print7printlnEji
	.section	.text._ZN5Print7printlnEmi,"ax",@progbits
.global	_ZN5Print7printlnEmi
	.type	_ZN5Print7printlnEmi, @function
_ZN5Print7printlnEmi:
.LFB58:
	.loc 2 148 0
	.cfi_startproc
.LVL109:
	push r16
.LCFI53:
	.cfi_def_cfa_offset 3
	.cfi_offset 16, -2
	push r17
.LCFI54:
	.cfi_def_cfa_offset 4
	.cfi_offset 17, -3
	push r28
.LCFI55:
	.cfi_def_cfa_offset 5
	.cfi_offset 28, -4
	push r29
.LCFI56:
	.cfi_def_cfa_offset 6
	.cfi_offset 29, -5
/* prologue: function */
/* frame size = 0 */
/* stack size = 4 */
.L__stack_usage = 4
	movw r28,r24
	.loc 2 149 0
	call _ZN5Print5printEmi
.LVL110:
	movw r16,r24
.LVL111:
	.loc 2 150 0
	movw r24,r28
	call _ZN5Print7printlnEv
.LVL112:
	.loc 2 152 0
	add r24,r16
	adc r25,r17
.LVL113:
/* epilogue start */
	pop r29
	pop r28
.LVL114:
	pop r17
	pop r16
	ret
	.cfi_endproc
.LFE58:
	.size	_ZN5Print7printlnEmi, .-_ZN5Print7printlnEmi
.global	__unordsf2
	.section	.rodata.str1.1
.LC1:
	.string	"nan"
.global	__lesf2
.LC2:
	.string	"inf"
.global	__gtsf2
.LC3:
	.string	"ovf"
.global	__ltsf2
.global	__divsf3
.global	__addsf3
.global	__fixunssfsi
.global	__floatunsisf
.global	__subsf3
.global	__mulsf3
	.section	.text._ZN5Print10printFloatEdh,"ax",@progbits
.global	_ZN5Print10printFloatEdh
	.type	_ZN5Print10printFloatEdh, @function
_ZN5Print10printFloatEdh:
.LFB61:
	.loc 2 184 0
	.cfi_startproc
.LVL115:
	push r4
.LCFI57:
	.cfi_def_cfa_offset 3
	.cfi_offset 4, -2
	push r5
.LCFI58:
	.cfi_def_cfa_offset 4
	.cfi_offset 5, -3
	push r6
.LCFI59:
	.cfi_def_cfa_offset 5
	.cfi_offset 6, -4
	push r7
.LCFI60:
	.cfi_def_cfa_offset 6
	.cfi_offset 7, -5
	push r8
.LCFI61:
	.cfi_def_cfa_offset 7
	.cfi_offset 8, -6
	push r9
.LCFI62:
	.cfi_def_cfa_offset 8
	.cfi_offset 9, -7
	push r10
.LCFI63:
	.cfi_def_cfa_offset 9
	.cfi_offset 10, -8
	push r11
.LCFI64:
	.cfi_def_cfa_offset 10
	.cfi_offset 11, -9
	push r12
.LCFI65:
	.cfi_def_cfa_offset 11
	.cfi_offset 12, -10
	push r13
.LCFI66:
	.cfi_def_cfa_offset 12
	.cfi_offset 13, -11
	push r14
.LCFI67:
	.cfi_def_cfa_offset 13
	.cfi_offset 14, -12
	push r15
.LCFI68:
	.cfi_def_cfa_offset 14
	.cfi_offset 15, -13
	push r16
.LCFI69:
	.cfi_def_cfa_offset 15
	.cfi_offset 16, -14
	push r17
.LCFI70:
	.cfi_def_cfa_offset 16
	.cfi_offset 17, -15
	push r28
.LCFI71:
	.cfi_def_cfa_offset 17
	.cfi_offset 28, -16
	push r29
.LCFI72:
	.cfi_def_cfa_offset 18
	.cfi_offset 29, -17
/* prologue: function */
/* frame size = 0 */
/* stack size = 16 */
.L__stack_usage = 16
	movw r16,r24
	movw r8,r20
	movw r10,r22
	mov r15,r18
.LVL116:
	.loc 2 187 0
	movw r18,r20
	movw r20,r22
.LVL117:
	movw r24,r10
	movw r22,r8
	call __unordsf2
.LVL118:
	tst r24
	breq .L58
	.loc 2 187 0 is_stmt 0 discriminator 1
	ldi r22,lo8(.LC1)
	ldi r23,hi8(.LC1)
	movw r24,r16
	call _ZN5Print5printEPKc
.LVL119:
	rjmp .L40
.L58:
	.loc 2 188 0 is_stmt 1
	movw r4,r8
	movw r6,r10
	clt
	bld r7,7
	ldi r18,lo8(-1)
	ldi r19,lo8(-1)
	ldi r20,lo8(127)
	ldi r21,lo8(127)
	movw r24,r6
	movw r22,r4
	call __unordsf2
.LVL120:
	cpse r24,__zero_reg__
	rjmp .L41
	ldi r18,lo8(-1)
	ldi r19,lo8(-1)
	ldi r20,lo8(127)
	ldi r21,lo8(127)
	movw r24,r6
	movw r22,r4
	call __lesf2
.LVL121:
	cp __zero_reg__,r24
	brge .L41
	.loc 2 188 0 is_stmt 0 discriminator 1
	ldi r22,lo8(.LC2)
	ldi r23,hi8(.LC2)
	movw r24,r16
	call _ZN5Print5printEPKc
.LVL122:
	rjmp .L40
.L41:
	.loc 2 189 0 is_stmt 1
	ldi r18,lo8(-1)
	ldi r19,lo8(-1)
	ldi r20,lo8(127)
	ldi r21,lo8(79)
	movw r24,r10
	movw r22,r8
	call __gtsf2
.LVL123:
	cp __zero_reg__,r24
	brge .L59
	.loc 2 189 0 is_stmt 0 discriminator 1
	ldi r22,lo8(.LC3)
	ldi r23,hi8(.LC3)
	movw r24,r16
	call _ZN5Print5printEPKc
.LVL124:
	rjmp .L40
.L59:
	.loc 2 190 0 is_stmt 1
	ldi r18,lo8(-1)
	ldi r19,lo8(-1)
	ldi r20,lo8(127)
	ldi r21,lo8(-49)
	movw r24,r10
	movw r22,r8
	call __ltsf2
.LVL125:
	tst r24
	brge .L60
	.loc 2 190 0 is_stmt 0 discriminator 1
	ldi r22,lo8(.LC3)
	ldi r23,hi8(.LC3)
	movw r24,r16
	call _ZN5Print5printEPKc
.LVL126:
	rjmp .L40
.L60:
	.loc 2 193 0 is_stmt 1
	ldi r18,0
	ldi r19,0
	movw r20,r18
	movw r24,r10
	movw r22,r8
	call __ltsf2
.LVL127:
	tst r24
	brge .L61
	.loc 2 195 0
	ldi r22,lo8(45)
	movw r24,r16
	call _ZN5Print5printEc
.LVL128:
	movw r12,r24
.LVL129:
	.loc 2 196 0
	bst r11,7
	com r11
	bld r11,7
	com r11
.LVL130:
	rjmp .L46
.LVL131:
.L61:
	.loc 2 185 0
	mov r12,__zero_reg__
	mov r13,__zero_reg__
.LVL132:
.L46:
.LBB21:
	.loc 2 201 0
	ldi r29,0
.LBE21:
	.loc 2 200 0
	ldi r22,0
	ldi r23,0
	ldi r24,0
	ldi r25,lo8(63)
.LVL133:
.L49:
.LBB22:
	.loc 2 201 0 discriminator 3
	cp r29,r15
	brsh .L48
	.loc 2 202 0 discriminator 2
	ldi r18,0
	ldi r19,0
	ldi r20,lo8(32)
	ldi r21,lo8(65)
	call __divsf3
.LVL134:
	.loc 2 201 0 discriminator 2
	subi r29,lo8(-(1))
.LVL135:
	rjmp .L49
.L48:
.LBE22:
	.loc 2 204 0
	movw r18,r22
	movw r20,r24
	movw r24,r10
	movw r22,r8
.LVL136:
	call __addsf3
.LVL137:
	movw r8,r22
	movw r10,r24
.LVL138:
	.loc 2 207 0
	call __fixunssfsi
.LVL139:
	movw r4,r22
	movw r6,r24
.LVL140:
	.loc 2 208 0
	call __floatunsisf
.LVL141:
	movw r18,r22
	movw r20,r24
	movw r24,r10
	movw r22,r8
	call __subsf3
.LVL142:
	movw r8,r22
	movw r10,r24
.LVL143:
	.loc 2 209 0
	ldi r18,lo8(10)
	ldi r19,0
	movw r22,r6
	movw r20,r4
	movw r24,r16
	call _ZN5Print5printEmi
.LVL144:
	movw r28,r12
	add r28,r24
	adc r29,r25
.LVL145:
	.loc 2 212 0
	tst r15
	breq .L51
	.loc 2 213 0
	ldi r22,lo8(46)
	movw r24,r16
	call _ZN5Print5printEc
.LVL146:
	add r28,r24
	adc r29,r25
.LVL147:
.L51:
	.loc 2 217 0
	clr r7
	dec r7
	add r7,r15
.LVL148:
	tst r15
	breq .L53
.LBB23:
	.loc 2 219 0
	ldi r18,0
	ldi r19,0
	ldi r20,lo8(32)
	ldi r21,lo8(65)
	movw r24,r10
	movw r22,r8
	call __mulsf3
.LVL149:
	movw r8,r22
	movw r10,r24
.LVL150:
	.loc 2 220 0
	call __fixunssfsi
.LVL151:
	movw r12,r22
	movw r14,r24
.LVL152:
	.loc 2 221 0
	ldi r20,lo8(10)
	ldi r21,0
	movw r24,r16
	call _ZN5Print5printEji
.LVL153:
	add r28,r24
	adc r29,r25
.LVL154:
	.loc 2 222 0
	movw r22,r12
	ldi r24,0
	ldi r25,0
	call __floatunsisf
.LVL155:
	movw r18,r22
	movw r20,r24
	movw r24,r10
	movw r22,r8
	call __subsf3
.LVL156:
	movw r8,r22
	movw r10,r24
.LVL157:
.LBE23:
	.loc 2 217 0
	mov r15,r7
	rjmp .L51
.LVL158:
.L53:
	.loc 2 225 0
	mov r24,r28
	mov r25,r29
.LVL159:
.L40:
/* epilogue start */
	.loc 2 226 0
	pop r29
	pop r28
	pop r17
	pop r16
.LVL160:
	pop r15
	pop r14
	pop r13
	pop r12
	pop r11
	pop r10
	pop r9
	pop r8
	pop r7
	pop r6
	pop r5
	pop r4
	ret
	.cfi_endproc
.LFE61:
	.size	_ZN5Print10printFloatEdh, .-_ZN5Print10printFloatEdh
	.section	.text._ZN5Print5printEdi,"ax",@progbits
.global	_ZN5Print5printEdi
	.type	_ZN5Print5printEdi, @function
_ZN5Print5printEdi:
.LFB50:
	.loc 2 95 0
	.cfi_startproc
.LVL161:
/* prologue: function */
/* frame size = 0 */
/* stack size = 0 */
.L__stack_usage = 0
	.loc 2 96 0
	call _ZN5Print10printFloatEdh
.LVL162:
	.loc 2 97 0
	ret
	.cfi_endproc
.LFE50:
	.size	_ZN5Print5printEdi, .-_ZN5Print5printEdi
	.section	.text._ZN5Print7printlnEdi,"ax",@progbits
.global	_ZN5Print7printlnEdi
	.type	_ZN5Print7printlnEdi, @function
_ZN5Print7printlnEdi:
.LFB59:
	.loc 2 155 0
	.cfi_startproc
.LVL163:
	push r16
.LCFI73:
	.cfi_def_cfa_offset 3
	.cfi_offset 16, -2
	push r17
.LCFI74:
	.cfi_def_cfa_offset 4
	.cfi_offset 17, -3
	push r28
.LCFI75:
	.cfi_def_cfa_offset 5
	.cfi_offset 28, -4
	push r29
.LCFI76:
	.cfi_def_cfa_offset 6
	.cfi_offset 29, -5
/* prologue: function */
/* frame size = 0 */
/* stack size = 4 */
.L__stack_usage = 4
	movw r28,r24
	.loc 2 156 0
	call _ZN5Print5printEdi
.LVL164:
	movw r16,r24
.LVL165:
	.loc 2 157 0
	movw r24,r28
	call _ZN5Print7printlnEv
.LVL166:
	.loc 2 159 0
	add r24,r16
	adc r25,r17
.LVL167:
/* epilogue start */
	pop r29
	pop r28
.LVL168:
	pop r17
	pop r16
	ret
	.cfi_endproc
.LFE59:
	.size	_ZN5Print7printlnEdi, .-_ZN5Print7printlnEdi
	.weak	_ZTV5Print
	.section	.rodata._ZTV5Print,"aG",@progbits,_ZTV5Print,comdat
	.type	_ZTV5Print, @object
	.size	_ZTV5Print, 12
_ZTV5Print:
	.word	0
	.word	0
	.word	gs(__cxa_pure_virtual)
	.word	gs(_ZN5Print5writeEPKhj)
	.word	gs(_ZN5Print17availableForWriteEv)
	.word	gs(_ZN5Print5flushEv)
	.text
.Letext0:
	.file 3 "d:\\soft\\7.0\\toolchain\\avr8\\avr8-gnu-toolchain\\lib\\gcc\\avr\\5.4.0\\include\\stddef.h"
	.file 4 "d:\\soft\\7.0\\toolchain\\avr8\\avr8-gnu-toolchain\\avr\\include\\stdint.h"
	.file 5 ".././Stream.h"